target datalayout = "e-m:e-p270:32:32-p271:32:32-p272:64:64-i64:64-i128:128-f80:128-n8:16:32:64-S128"
target triple = "x86_64-pc-linux-gnu"

@__const.av1_filter_intra_edge_c.kernel = private unnamed_addr constant [3 x [5 x i32]] [[5 x i32] [i32 0, i32 4, i32 8, i32 4, i32 0], [5 x i32] [i32 0, i32 5, i32 6, i32 5, i32 0], [5 x i32] [i32 2, i32 4, i32 4, i32 4, i32 2]], align 16

; Function Attrs: nounwind uwtable
define hidden void @av1_filter_intra_edge_c(ptr noundef %0, i32 noundef %1, i32 noundef %2) #0 {
  %4 = alloca ptr, align 8
  %5 = alloca i32, align 4
  %6 = alloca i32, align 4
  %7 = alloca [3 x [5 x i32]], align 16
  %8 = alloca i32, align 4
  %9 = alloca [129 x i8], align 16
  %10 = alloca i32, align 4
  %11 = alloca i32, align 4
  %12 = alloca i32, align 4
  %13 = alloca i32, align 4
  store ptr %0, ptr %4, align 8
  store i32 %1, ptr %5, align 4
  store i32 %2, ptr %6, align 4
  %14 = load i32, ptr %6, align 4
  %15 = icmp ne i32 %14, 0
  br i1 %15, label %17, label %16

16:                                               ; preds = %3
  br label %87

17:                                               ; preds = %3
  call void @llvm.memcpy.p0.p0.i64(ptr align 16 %7, ptr align 16 @__const.av1_filter_intra_edge_c.kernel, i64 60, i1 false)
  %18 = load i32, ptr %6, align 4
  %19 = sub nsw i32 %18, 1
  store i32 %19, ptr %8, align 4
  %20 = getelementptr inbounds [129 x i8], ptr %9, i64 0, i64 0
  %21 = load ptr, ptr %4, align 8
  %22 = load i32, ptr %5, align 4
  %23 = sext i32 %22 to i64
  %24 = mul i64 %23, 1
  call void @llvm.memcpy.p0.p0.i64(ptr align 16 %20, ptr align 1 %21, i64 %24, i1 false)
  store i32 1, ptr %10, align 4
  br label %25

25:                                               ; preds = %84, %17
  %26 = load i32, ptr %10, align 4
  %27 = load i32, ptr %5, align 4
  %28 = icmp slt i32 %26, %27
  br i1 %28, label %29, label %87

29:                                               ; preds = %25
  store i32 0, ptr %11, align 4
  store i32 0, ptr %12, align 4
  br label %30

30:                                               ; preds = %71, %29
  %31 = load i32, ptr %12, align 4
  %32 = icmp slt i32 %31, 5
  br i1 %32, label %33, label %74

33:                                               ; preds = %30
  %34 = load i32, ptr %10, align 4
  %35 = sub nsw i32 %34, 2
  %36 = load i32, ptr %12, align 4
  %37 = add nsw i32 %35, %36
  store i32 %37, ptr %13, align 4
  %38 = load i32, ptr %13, align 4
  %39 = icmp slt i32 %38, 0
  br i1 %39, label %40, label %41

40:                                               ; preds = %33
  br label %43

41:                                               ; preds = %33
  %42 = load i32, ptr %13, align 4
  br label %43

43:                                               ; preds = %41, %40
  %44 = phi i32 [ 0, %40 ], [ %42, %41 ]
  store i32 %44, ptr %13, align 4
  %45 = load i32, ptr %13, align 4
  %46 = load i32, ptr %5, align 4
  %47 = sub nsw i32 %46, 1
  %48 = icmp sgt i32 %45, %47
  br i1 %48, label %49, label %52

49:                                               ; preds = %43
  %50 = load i32, ptr %5, align 4
  %51 = sub nsw i32 %50, 1
  br label %54

52:                                               ; preds = %43
  %53 = load i32, ptr %13, align 4
  br label %54

54:                                               ; preds = %52, %49
  %55 = phi i32 [ %51, %49 ], [ %53, %52 ]
  store i32 %55, ptr %13, align 4
  %56 = load i32, ptr %13, align 4
  %57 = sext i32 %56 to i64
  %58 = getelementptr inbounds [129 x i8], ptr %9, i64 0, i64 %57
  %59 = load i8, ptr %58, align 1
  %60 = zext i8 %59 to i32
  %61 = load i32, ptr %8, align 4
  %62 = sext i32 %61 to i64
  %63 = getelementptr inbounds [3 x [5 x i32]], ptr %7, i64 0, i64 %62
  %64 = load i32, ptr %12, align 4
  %65 = sext i32 %64 to i64
  %66 = getelementptr inbounds [5 x i32], ptr %63, i64 0, i64 %65
  %67 = load i32, ptr %66, align 4
  %68 = mul nsw i32 %60, %67
  %69 = load i32, ptr %11, align 4
  %70 = add nsw i32 %69, %68
  store i32 %70, ptr %11, align 4
  br label %71

71:                                               ; preds = %54
  %72 = load i32, ptr %12, align 4
  %73 = add nsw i32 %72, 1
  store i32 %73, ptr %12, align 4
  br label %30, !llvm.loop !26

74:                                               ; preds = %30
  %75 = load i32, ptr %11, align 4
  %76 = add nsw i32 %75, 8
  %77 = ashr i32 %76, 4
  store i32 %77, ptr %11, align 4
  %78 = load i32, ptr %11, align 4
  %79 = trunc i32 %78 to i8
  %80 = load ptr, ptr %4, align 8
  %81 = load i32, ptr %10, align 4
  %82 = sext i32 %81 to i64
  %83 = getelementptr inbounds i8, ptr %80, i64 %82
  store i8 %79, ptr %83, align 1
  br label %84

84:                                               ; preds = %74
  %85 = load i32, ptr %10, align 4
  %86 = add nsw i32 %85, 1
  store i32 %86, ptr %10, align 4
  br label %25, !llvm.loop !27

87:                                               ; preds = %25, %16
  ret void
}