; Function Attrs: nofree norecurse nosync nounwind memory(argmem: readwrite) uwtable
define hidden void @av1_filter_intra_edge_c(ptr nocapture noundef %0, i32 noundef %1, i32 noundef %2) local_unnamed_addr #0 {
  %4 = alloca [129 x i8], align 16
  %.not = icmp eq i32 %2, 0
  br i1 %.not, label %.loopexit, label %5

5:                                                ; preds = %3
  %6 = sext i32 %1 to i64
  call void @llvm.memcpy.p0.p0.i64(ptr nonnull align 16 %4, ptr align 1 %0, i64 %6, i1 false)
  %7 = icmp sgt i32 %1, 1
  br i1 %7, label %.preheader.lr.ph, label %.loopexit

.preheader.lr.ph:                                 ; preds = %5
  %8 = add nsw i32 %2, -1
  %9 = add nsw i32 %1, -1
  %10 = sext i32 %8 to i64
  %wide.trip.count = zext nneg i32 %1 to i64
  br label %.preheader

.preheader:                                       ; preds = %.preheader.lr.ph, %25
  %indvars.iv32 = phi i64 [ 1, %.preheader.lr.ph ], [ %indvars.iv.next33, %25 ]
  %11 = add nuw i64 %indvars.iv32, 4294967294
  br label %12

12:                                               ; preds = %.preheader, %12
  %indvars.iv = phi i64 [ 0, %.preheader ], [ %indvars.iv.next, %12 ]
  %.02528 = phi i32 [ 0, %.preheader ], [ %24, %12 ]
  %13 = add i64 %11, %indvars.iv
  %14 = trunc i64 %13 to i32
  %15 = tail call i32 @llvm.smax.i32(i32 %14, i32 0)
  %16 = tail call i32 @llvm.smin.i32(i32 %15, i32 %9)
  %17 = sext i32 %16 to i64
  %18 = getelementptr inbounds [129 x i8], ptr %4, i64 0, i64 %17
  %19 = load i8, ptr %18, align 1
  %20 = zext i8 %19 to i32
  %21 = getelementptr inbounds [3 x [5 x i32]], ptr @__const.av1_filter_intra_edge_high_c.kernel, i64 0, i64 %10, i64 %indvars.iv
  %22 = load i32, ptr %21, align 4
  %23 = mul nsw i32 %22, %20
  %24 = add nsw i32 %23, %.02528
  %indvars.iv.next = add nuw nsw i64 %indvars.iv, 1
  %exitcond.not = icmp eq i64 %indvars.iv.next, 5
  br i1 %exitcond.not, label %25, label %12, !llvm.loop !26

25:                                               ; preds = %12
  %26 = add nsw i32 %24, 8
  %27 = lshr i32 %26, 4
  %28 = trunc i32 %27 to i8
  %29 = getelementptr inbounds i8, ptr %0, i64 %indvars.iv32
  store i8 %28, ptr %29, align 1
  %indvars.iv.next33 = add nuw nsw i64 %indvars.iv32, 1
  %exitcond35.not = icmp eq i64 %indvars.iv.next33, %wide.trip.count
  br i1 %exitcond35.not, label %.loopexit, label %.preheader, !llvm.loop !27

.loopexit:                                        ; preds = %25, %5, %3
  ret void
}